c__builtin__
set
p1
((lp2
S"I can't wait until we're both alone so that I can blow your mind."
p3
aS'I love how you taste.'
p4
aS"Don't stop, it feels so good!"
p5
aS'Stop talking and just do me!'
p6
aS'I want you to take control of me!'
p7
aS'I love feeling you in my hands!'
p8
aS'Keeping going, keep going!'
p9
aS'I just want to be used by you tonight. Can I be your personal toy?'
p10
aS'I never want you to stop, it feels so good.'
p11
aS'I was thinking about you last night before I went to sleep...'
p12
aS'Feeling you on top of me and in control is the hottest thing ever!'
p13
aS'I want you to finish wherever you like.'
p14
aS'I get so turned on just thinking about the last time we made love.'
p15
aS"I love how you look at me when we're together, it's so hot!"
p16
aS'I want to tie you up later and have my way with you.'
p17
aS"I feel so weak and turned on at the same time when I'm in your arms."
p18
aS'Just lie back and let me take care of business.'
p19
aS'You dominating me is such a turn on.'
p20
aS"I want to give you the best oral sex you've ever had."
p21
aS'I need you right now.'
p22
atRp23
.