c__builtin__
set
p1
((lp2
VMay you never be able to clear your throat.
p3
aVMay your subtitles never sync right
p4
aVMay You Always Get Up From Your Computer With Your Headphones Still Attached.
p5
aVMay your someone always walk in on you masturbating seconds before climax.
p6
aVMay your saved game always corrupt
p7
aVMay a car always block you when your turning.
p8
aVMay the website you need for work be in 10 year old, unmaintained Flash
p9
aVMay your upstairs apartment neighbors always wear their fancy leaden boots to their at home bowling practice.
p10
aVMay you poor a bowl of cereal then as you open the fridge realize that you are out of milk.
p11
aVMay you wake up in the morning wrapped in used flypaper.
p12
aVMay you never remember these curses when you try to.
p13
aVMay your broken nail always snag on fabrics
p14
aVMay all your youtube searches have the little ad link pop up a half second after the page loads and you click on it on accident
p15
aVMay Reddit's servers always be busy
p16
aVMay you always forget the towel when you step in the shower.
p17
aVMay there forever be a gust of wind when you try to light your cigarette.
p18
aVMay you always realize that there is no toiletpaper when you want to wipe
p19
aVMay you never remember where you left your keys.
p20
aVMay your portable speaker only have enough battery to play half a song when you really need it.
p21
aVMay you wake up in the middle of the night from the most blissful sleep for trivial reasons.
p22
aVMay your in laws be to you as you have been to me.
p23
aVMay the tingling in your nose never come out as a sneeze.
p24
aVMay you already be subscribed to every sub you will ever find interesting.
p25
aVMay you never get that song out of your head.
p26
aVMay whenever you watch a movie on cable, they cut out your favorite scene
p27
aVMay you always run out of milk after pouring your cereal
p28
aVMay every written post/response over 140 characters instantly vanish upon hitting "submit"
p29
aVMay you never know what shoes to wear with your dress.
p30
aVMay one card always disappear from any deck you touch
p31
aVMay your nights be long and forever lonely.
p32
aVMay people always know if you are actually listening to music in your headphones
p33
aVMay You Wipe A Thousand Times Before It Comes Back Clean
p34
aVMay your marinara sauce never cling to your pasta!
p35
aVMay all your bacon burn
p36
aVMay you always be slightly cross-eyed to the point where you will unease everyone
p37
aVMay your mechanic become rich
p38
aVMay You Always Start Pouring Milk On Your Cereal Before Realizing There's Not Enough Left In The Carton For A Proper Milk-Cereal Ratio
p39
aVMay people always greet you with a sweaty handshake.
p40
aVMay you always fart right before you sit down, placing your face directly in the cloud of stink.
p41
aVMay you never be able to find the end of the sticky tape when wrapping gifts.
p42
aVMay your belt loop catch every door handle, and your headphones every drawer knob.
p43
aVMay you always be plagued by awkward thoughts immediately before sleep.
p44
aVMay your Wi-Fi signal be strong and your connection slow
p45
aVMay you always messege the wrong person when trying to send an embarrassing text.
p46
aVMay Senpai Never Notices You
p47
aVMay your toilet paper never be totally clean after wiping.
p48
aVMay someone always call your name while you're beating your meat
p49
aVMay all of your family members find you on Facebook
p50
aVMay your crabs have superpowers.
p51
aVMay your legs always stick to your chair when you try to stand up.
p52
aVMay the fleas of one thousand camels infest your crotch and your arms grow too short to scratch.
p53
aVMay the car in front of you be driven by a tourist just seeing the sights when you are in a hurry
p54
aVMay you forever have an almost healed blister on each foot that will cause you pain with every step you take, not very serious but strong enough to make your day unpleasant
p55
aVMay every cork disintegrate into your wine upon opening.
p56
aVMay no one be interested in any of your social media posts.
p57
aVMay your mother search for you with a Geiger counter(and other traditional Serbian curses inside)
p58
aVMay all of your steps land on LEGO bricks
p59
aVMay Every Sentence You Read All Have Individually Capitalized Words.
p60
aVMay you walk through a spider web every time you cross a threshold.
p61
aVMay you always think about your breathing.
p62
aVMay Adobe Updater be forever interrupting your web browsing.
p63
aVMay the vacuum cleaner always turn on while you're holding a claw-happy cat
p64
aVMay your fly be perpetually undone
p65
aVMay the one they call Yeesus actually rule your country in 2020.
p66
aVMay you always feel like peeing badly every time you fumble for your house keys at the door.
p67
aVMay your favorite subreddits never show up on the ribbon that shows your subscribed subreddits.
p68
aVMay you never have enough toilet paper to finish properly wiping.
p69
aVMay all your farts have lumps.
p70
aVMay every dark floor you walk on be covered in LEGO blocks.
p71
aVMay you create so much friction while having sex that your pubic hair catches fire.
p72
aVMay you always be tired out of bed, but wide awake in bed.
p73
aVMay you always leave one red sock in your load of white laundry.
p74
aVMay you be thirsty but all you have is water.
p75
aVMay you always find a hair in your soup.
p76
aVYour hard drive. May it fail with important data.
p77
aVMay your tv volume always be set on a prime number.
p78
aVMay you always pick up a drink with an improper amount of force.
p79
aVMay you forget the lyrics to your favourite song.
p80
aVMay you forever get tinnitus when trying to sleep
p81
aVMay your scrambled eggs be just a little bit too runny.
p82
aVMay you have to take a job as a bicycle delivery person for a pizzeria and may you have to make pizza deliveries during a hurricane.
p83
aVMay your children be just like you.
p84
aVMay somebody always speak to you whilst you are wearing headphones, and as soon as you refocus on whatever you're listening too, they start speaking again.
p85
aVMay all your checkbooks be novelty
p86
aVMay you always think about embarrassing things you did three years ago when you try to go asleep.
p87
aVMay you always have to pee when laying down
p88
aVMay you scald the roof of your mouth every time you eat pizza.
p89
aVMay you always find a Skittle mixed into a handful of M&Ms
p90
aVMay you find grammatical errors in all of your favourite songs
p91
aVMay all your TVs, monitors, tablets, phones, and other such devices always have stuck or dead pixels.
p92
aVMay your SO's parents always be home
p93
aVMay all your socks be inside-out when folding laundry
p94
aVMay the skin of your Johnson get caught in the zipper every time you decide to wear jeans
p95
aVMay your foot catch on the edge of every stair.
p96
aVMay your login information disappear after every false attempt!
p97
aVMay your bed sheets be removed every time you wake up from sleeping.
p98
aVMay you always use the wrong "you're".
p99
aVMay you always slightly burn your popcorn.
p100
aVMay your refrigerator never be cold enough inside.
p101
aVMay you have mosquito bites in between your toes.
p102
aVMay your Apple chargers always fray, cursing you to a infinite wire-rotating hell.
p103
aVMay your Google search history be publicly shared every time you log in to a social media site.
p104
aVMay your dog never get the hang of potty training.
p105
aVMay your life be as pleasant as you are.
p106
aVMay someone's default iPhone ringtone play every 5 minutes in your workplace.
p107
aVMay a pair of slow walkers block your path every time you have to be somewhere in a hurry.
p108
aVMay you always cum two hours after.
p109
aVMay your work always be unsaved.
p110
aVMay your afterlife be worse than you expected.
p111
aVMay your five year old neighbour have their violin lesson during all of your hangovers.
p112
aVMay your efforts be directly related to the outcomes of your goals
p113
aVMay your marinara never stick to your pasta.
p114
aVMay you always forget the punchline of a joke after you start telling it
p115
aVMay you never be quite certain as to whether that pressure is a fart or poop.
p116
aVMay your true love hang the toilet paper backwards
p117
aVMay your favorite foods always taste like your least favorite
p118
aVMay the clothing stores you visit carry everything but your size.
p119
aVMay you always forget to pack clean underwear in your gym bag.
p120
aVMay you always click the wrong download button.
p121
aVMay you be unable to get the vacation dates you asked for because a coworker already requested them.
p122
aVMay you have an urge to urinate at every meal.
p123
aVMay you always read my username and do as it says.
p124
aVMay the fleas from 1000 dog blankets nest in your underwear drawer.
p125
aVMay you develop a massive, slightly inconvenient wad of snot in your throat after sobbing
p126
aVMay all your role models forever think that you're annoying.
p127
aVMay your belt always have notches either too tight or too loose and never fit perfectly
p128
aVMay the inside of your ear itch where your fingers cannot reach.
p129
aVMay the lemon juice always find your paper cut.
p130
aVMay you never recognize the song which keeps playing in your head.
p131
aVMay your errors always be in runtime.
p132
aVMay you always have a little less toilet paper than you need.
p133
aVMay you step on a lego whenever you have a drink in your hand.
p134
aVMay your armpits be infested by the fleas of a thousand camels
p135
aVMay you always forget to eject your USB device before removing it.
p136
aVMay you be ticketed for going one mile over the speed limit.
p137
aVMay your insurance rates match your driving ability.
p138
aVMay you be forced to repeat the most complex sentence that you have formed today because you didn't say it loud enough.
p139
aVMay you always forget to shake the ketchup bottle before squeezing it over a bun.
p140
aVMay all your dreams feel 100 hours long and be entirely black
p141
aVMay you always forget to capitalize your passwords
p142
aVMay you leave your laptop to charge overnight without noticing the chord isn't plugged into the wall.
p143
aVMay you mistake every crane fly for a spider
p144
aVMay all your garbage bags leak an unknown substance when going to the dumpster.
p145
aVMay you only eat salt and vinegar chips while you have a canker sore.
p146
aVMay you always fart when you sneeze.
p147
aVMay your aunt judge your sanity by comments on your FB status updates you work so hard to be funny at
p148
aVMay your bedroom door never fully latch.
p149
aVMay you submerge into water and reemerge without the ability to hear for a short time.
p150
aVMay your watch always go 10 minutes early
p151
aVMay all of your Doritos lack any of the seasoning, and be stale.
p152
aVMay every soda you drink be shaken up.
p153
aVMay you always forget your cutlery after you have sat down.
p154
aVMay your farts smell great but be extremely loud.
p155
aVMay you always forget to click save
p156
aVMay you successfully descend 99 stairs and slip and fall on the 100th.
p157
aVMay you always arrive at your destination just a few minutes late.
p158
aVMay you always think of a good submission to this subreddit, and then find out someone else has already submitted it!
p159
aVMay every screw you encounter be stripped.
p160
aVMay you always have a sliver in your sock.
p161
aVMay your avocados never ripen.
p162
aVMay you always miss your chair when you go to sit down
p163
aVMay a new text message always bump you back to the bottom of the group text conversation just before you figure out what everyone is talking about.
p164
aVMay every time you walk into a room you forget what you were doing.
p165
aVMay you always forget a condom before having sex with your s/o.
p166
aVMay your favorite video game get adapted into a movie by Uwe Boll.
p167
aVMay your current favourite TV series always be spoilered.
p168
aVMAY THE FLEAS OF A THOUSAND CAMELS INFEST YOUR ARMPITS BY NIGHTFALL
p169
aVMay you always feel like a burden when asking good friends if they want to hang out.
p170
aVMay all your Facebook notifications be game invites.
p171
aVMay you never know what to do with your tongue during a dental appointment.
p172
aVMay your elevator always go the opposite direction than desired and may the keys always be questionably sticky.
p173
aVMay your ass be itchy but your arms too short to reach it.
p174
aVMay you always feel like you must sneeze, and you never sneeze.
p175
aVMay subway run out of cheese whenever you order
p176
aVMay you forever think you have a pubic hair on your tongue
p177
aVMay you always wake up five minutes before your alarm goes off
p178
aVMay you have the loudest of farts during the quietest moments of every meeting.
p179
aVMay you get hot sauce directly onto and into your mouth sores
p180
aVMay your internet always freeze as you approach an enemy in an online FPS.
p181
aVMay your cellphone fall in-between your seats every time you drive
p182
aVMay you bite down every time you stick your tongue out.
p183
aVMay you be at the brim of heavenly comfort in your bed, then have a sudden urge to pee.
p184
aVMay your cat always act content when you pet it and then suddenly attack you without warning.
p185
aVMay you always forget you put something in the microwave
p186
aVMay you always get that feeling of your smartphone vibrating in your pocket
p187
aVMay you always have to use the bathroom when a very important meeting starts.
p188
aVMay you always need to poop right when it is time to leave.
p189
aVMay you suffer from dysentery.
p190
aVMay you always quit without saving.
p191
aVMay the cheese on your burger never be properly melted
p192
aVMay your torrents always run out of seeders
p193
aVMay you always fall off your longboard as you fly by me on your way to class
p194
aVMay you never be able to find the actual download button.
p195
aVMay you live long enough to watch your children die.
p196
aVMay your phone loudly vibrate from an incorrect password in a public bathroom stall
p197
aVMay your printer always be out of ink when you print your essay.
p198
aVMay all your cookie always get too soft and break off when you dip them in milk.
p199
aVMay that super hilarious comment you thought of already be posted by another by the time you hit "submit"
p200
aVMay your expiration dates be far too late.
p201
aVMay you wake up too early for no reason and find it difficult to enjoy your day properly
p202
atRp203
.